; Function Attrs: nounwind uwtable
define internal i32 @request_frame(ptr noundef readonly captures(none) %0) #1 {
  %2 = load ptr, ptr %0, align 8, !tbaa !98
  %3 = getelementptr inbounds nuw i8, ptr %2, i64 72
  %4 = load ptr, ptr %3, align 8, !tbaa !4
  %5 = getelementptr inbounds nuw i8, ptr %2, i64 32
  %6 = load ptr, ptr %5, align 8, !tbaa !99
  %7 = load ptr, ptr %6, align 8, !tbaa !37
  %8 = tail call i32 @ff_request_frame(ptr noundef %7) #8
  %9 = icmp eq i32 %8, -541478725
  br i1 %9, label %10, label %20

10:                                               ; preds = %1
  %11 = getelementptr inbounds nuw i8, ptr %4, i64 64
  %12 = load i32, ptr %11, align 8, !tbaa !41
  %13 = getelementptr inbounds nuw i8, ptr %4, i64 12
  %14 = load i32, ptr %13, align 4, !tbaa !42
  %15 = icmp slt i32 %12, %14
  br i1 %15, label %16, label %20

16:                                               ; preds = %10
  %17 = load ptr, ptr %5, align 8, !tbaa !99
  %18 = load ptr, ptr %17, align 8, !tbaa !37
  %19 = tail call i32 @filter_frame(ptr noundef %18, ptr noundef null)
  br label %20

20:                                               ; preds = %16, %10, %1
  %.0 = phi i32 [ %19, %16 ], [ -541478725, %10 ], [ %8, %1 ]
  ret i32 %.0
}